target datalayout = "e-m:e-p270:32:32-p271:32:32-p272:64:64-i64:64-i128:128-f80:128-n8:16:32:64-S128"
target triple = "x86_64-pc-linux-gnu"

%struct.CTState = type { ptr, i32, i32, ptr, ptr, ptr, %struct.CCallback, [128 x i16] }
%struct.CCallback = type { [8 x %union.FPRCBArg], [8 x i64], ptr, ptr, ptr, i32, i32, i32 }
%union.FPRCBArg = type { double }
%struct.CType = type { i32, i32, i16, i16, %struct.GCRef }
%struct.GCRef = type { i64 }

; Function Attrs: alwaysinline nounwind uwtable
define internal i32 @ctype_check(ptr noundef %0, i32 noundef %1) #5 {
  %3 = alloca ptr, align 8
  %4 = alloca i32, align 4
  store ptr %0, ptr %3, align 8, !tbaa !4
  store i32 %1, ptr %4, align 4, !tbaa !21
  %5 = load i32, ptr %4, align 4, !tbaa !21
  ret i32 %5
}

; Function Attrs: alwaysinline nounwind uwtable
define internal ptr @ctype_child(ptr noundef %0, ptr noundef %1) #5 {
  %3 = alloca ptr, align 8
  %4 = alloca ptr, align 8
  store ptr %0, ptr %3, align 8, !tbaa !4
  store ptr %1, ptr %4, align 8, !tbaa !25
  %5 = load ptr, ptr %3, align 8, !tbaa !4
  %6 = load ptr, ptr %4, align 8, !tbaa !25
  %7 = getelementptr inbounds nuw %struct.CType, ptr %6, i32 0, i32 0
  %8 = load i32, ptr %7, align 8, !tbaa !26
  %9 = and i32 %8, 65535
  %10 = call ptr @ctype_get(ptr noundef %5, i32 noundef %9)
  ret ptr %10
}

; Function Attrs: alwaysinline nounwind uwtable
define internal ptr @ctype_get(ptr noundef %0, i32 noundef %1) #5 {
  %3 = alloca ptr, align 8
  %4 = alloca i32, align 4
  store ptr %0, ptr %3, align 8, !tbaa !4
  store i32 %1, ptr %4, align 4, !tbaa !21
  %5 = load ptr, ptr %3, align 8, !tbaa !4
  %6 = getelementptr inbounds nuw %struct.CTState, ptr %5, i32 0, i32 0
  %7 = load ptr, ptr %6, align 8, !tbaa !24
  %8 = load ptr, ptr %3, align 8, !tbaa !4
  %9 = load i32, ptr %4, align 4, !tbaa !21
  %10 = call i32 @ctype_check(ptr noundef %8, i32 noundef %9)
  %11 = zext i32 %10 to i64
  %12 = getelementptr inbounds nuw %struct.CType, ptr %7, i64 %11
  ret ptr %12
}

; Function Attrs: nounwind uwtable
define hidden ptr @lj_ctype_rawref(ptr noundef %0, i32 noundef %1) #0 {
  %3 = alloca ptr, align 8
  %4 = alloca i32, align 4
  %5 = alloca ptr, align 8
  store ptr %0, ptr %3, align 8, !tbaa !4
  store i32 %1, ptr %4, align 4, !tbaa !21
  call void @llvm.lifetime.start.p0(i64 8, ptr %5) #8
  %6 = load ptr, ptr %3, align 8, !tbaa !4
  %7 = load i32, ptr %4, align 4, !tbaa !21
  %8 = call ptr @ctype_get(ptr noundef %6, i32 noundef %7)
  store ptr %8, ptr %5, align 8, !tbaa !25
  br label %9

9:                                                ; preds = %23, %2
  %10 = load ptr, ptr %5, align 8, !tbaa !25
  %11 = getelementptr inbounds nuw %struct.CType, ptr %10, i32 0, i32 0
  %12 = load i32, ptr %11, align 8, !tbaa !26
  %13 = lshr i32 %12, 28
  %14 = icmp eq i32 %13, 8
  br i1 %14, label %21, label %15

15:                                               ; preds = %9
  %16 = load ptr, ptr %5, align 8, !tbaa !25
  %17 = getelementptr inbounds nuw %struct.CType, ptr %16, i32 0, i32 0
  %18 = load i32, ptr %17, align 8, !tbaa !26
  %19 = and i32 %18, -260046848
  %20 = icmp eq i32 %19, 545259520
  br label %21

21:                                               ; preds = %15, %9
  %22 = phi i1 [ true, %9 ], [ %20, %15 ]
  br i1 %22, label %23, label %27

23:                                               ; preds = %21
  %24 = load ptr, ptr %3, align 8, !tbaa !4
  %25 = load ptr, ptr %5, align 8, !tbaa !25
  %26 = call ptr @ctype_child(ptr noundef %24, ptr noundef %25)
  store ptr %26, ptr %5, align 8, !tbaa !25
  br label %9, !llvm.loop !45

27:                                               ; preds = %21
  %28 = load ptr, ptr %5, align 8, !tbaa !25
  call void @llvm.lifetime.end.p0(i64 8, ptr %5) #8
  ret ptr %28
}