; Function Attrs: nofree norecurse nosync nounwind memory(read, inaccessiblemem: none) uwtable
define hidden noundef ptr @lj_ctype_rawref(ptr noundef readonly captures(none) %0, i32 noundef %1) local_unnamed_addr #7 {
  %3 = load ptr, ptr %0, align 8, !tbaa !19
  br label %.critedge

.critedge:                                        ; preds = %.critedge, %2
  %.pn.in = phi i32 [ %1, %2 ], [ %8, %.critedge ]
  %.pn = zext i32 %.pn.in to i64
  %.0 = getelementptr inbounds nuw %struct.CType, ptr %3, i64 %.pn
  %4 = load i32, ptr %.0, align 8, !tbaa !28
  %5 = icmp slt i32 %4, -1879048192
  %6 = and i32 %4, -260046848
  %7 = icmp eq i32 %6, 545259520
  %or.cond = or i1 %5, %7
  %8 = and i32 %4, 65535
  br i1 %or.cond, label %.critedge, label %9, !llvm.loop !38

9:                                                ; preds = %.critedge
  ret ptr %.0
}